; Function Attrs: mustprogress nofree norecurse nosync nounwind willreturn memory(read, argmem: write, inaccessiblemem: none) uwtable
define noundef i32 @casadi_register_interpolant_bspline(ptr noundef writeonly captures(none) initializes((0, 28), (32, 56)) %0) #3 {
  store ptr @_ZN6casadi18BSplineInterpolant7creatorERKNSt7__cxx1112basic_stringIcSt11char_traitsIcESaIcEEERKSt6vectorIdSaIdEERKS9_IxSaIxEESD_x, ptr %0, align 8, !tbaa !3
  %2 = getelementptr inbounds nuw i8, ptr %0, i64 8
  store ptr @.str, ptr %2, align 8, !tbaa !12
  %3 = load ptr, ptr @_ZN6casadi18BSplineInterpolant8meta_docB5cxx11E, align 8, !tbaa !13
  %4 = getelementptr inbounds nuw i8, ptr %0, i64 16
  store ptr %3, ptr %4, align 8, !tbaa !17
  %5 = getelementptr inbounds nuw i8, ptr %0, i64 24
  store i32 31, ptr %5, align 8, !tbaa !18
  %6 = getelementptr inbounds nuw i8, ptr %0, i64 40
  store ptr @_ZN6casadi18BSplineInterpolant8options_E, ptr %6, align 8, !tbaa !19
  %7 = getelementptr inbounds nuw i8, ptr %0, i64 48
  store ptr @_ZN6casadi18BSplineInterpolant11deserializeERNS_19DeserializingStreamE, ptr %7, align 8, !tbaa !20
  %8 = getelementptr inbounds nuw i8, ptr %0, i64 32
  store ptr null, ptr %8, align 8, !tbaa !21
  ret i32 0
}